(lp0
F9.329789879137237e-07
aF0.2019475003393711
aF0.1284287560917697
aF0.07688586541498205
aF0.06273444012630669
aF0.04749422835873601
aF0.11088315324506415
aF0.09013883193829653
aF0.09827627467088007
aF0.4549895949518372
aF0.10618420457243682
aF0.21900095676995202
aF0.09352554566442328
aF0.05567318865628179
aF0.14960737911741107
aF0.06799131023370686
aF0.08398396955502951
aF0.1384489504219628
aF0.12008559149235154
aF0.14144334648367218
aF0.058517375100936686
aF0.13618554339728428
aF0.1861185788304267
aF0.041294582984049644
aF0.11428945952993708
aF0.14576863707164023
aF0.10235479231654487
aF0.11076139948714125
aF0.08376332002438813
aF0.1316755229697093
aF0.1471405826733676
aF0.0790993580638073
aF0.09658898217123824
aF0.08846086922853313
aF0.08879907411165266
aF0.08379410833098877
aF0.0805025584616299
aF0.05627402712449836
aF0.042489729067566984
aF0.12962156972781713
aF0.06712130732747656
aF0.11040033661881932
aF0.05312195761383176
aF0.12583274205789952
aF0.06722626746361726
aF0.1339935092651814
aF0.08536384547815423
aF0.1805328336297869
aF0.17971927595232629
aF0.21621134959609023
aF0.13322986596357378
aF0.10338013622426256
aF0.12293211038447538
aF0.2458828803487103
aF0.10108827334045234
aF0.16977791834661193
aF0.14659805539189552
aF0.09052601821828077
aF0.06520730093377214
aF0.13879228668951527
aF0.0942010224516725
aF0.12404841974351477
aF0.20720203799930115
aF0.21442469483423565
aF0.15287327206460244
aF0.10489202867417635
aF0.09905437914679993
aF0.09756627766107862
aF0.1131773485763432
aF0.07364796183742861
aF0.09848712792214798
aF0.11442987286761763
aF0.11762719185919934
aF0.10818077960657213
aF0.17995578612576146
aF0.07929575014076384
aF0.143504763557468
aF0.05684734271257064
aF0.11412852065452128
aF0.046736649420550336
aF0.6355089003863004
aF0.0990861004323893
aF1.2495956702311126
aF0.1950439223183036
aF0.16572878953906667
aF0.1441783743867422
aF0.1495980493275315
aF0.07950567041304346
aF0.1448809075646409
aF0.11529381141042627
aF0.11862827831322953
aF0.08478446552665986
aF0.06988665704765396
aF0.10514813140635759
aF0.07331022344380322
aF0.10596075610483169
aF0.0784966536376146
aF0.07958217469005291
aF0.1663926040889674
aF0.08106841021779765
aF0.19399152201993708
aF0.05191281684549587
aF0.10366002992063628
aF0.06345376692598848
aF0.06258423050925188
aF0.08185444501511618
aF0.1394971523148847
aF0.18631963580232203
aF0.22149107768869492
aF0.16986188645552325
aF0.17020195729661936
aF0.11925803913007194
aF0.09904458286742646
aF0.12723920788218024
aF0.06494186841170979
aF0.14220512382730455
aF0.25124984197668354
aF0.2184644938519007
aF0.08833864898111798
aF0.052145595102981446
aF0.06552637974763798
aF0.16064918543936813
aF0.08972878767310988
aF0.1207755294539119
aF0.045912362484727964
aF0.4539199345421956
aF0.33138947161201315
aF0.12943264148276512
aF0.33595173886291363
aF0.193241406913657
aF0.17358120719083914
aF0.20472731123386012
aF0.0651779120956526
aF0.12201545852885332
aF0.6418340314348612
aF0.08574170196825648
aF0.10279935680428665
aF0.08002487321981988
aF0.0808388973867693
aF0.13930682460135202
aF0.16567560973675555
aF0.021397406598307356
aF0.14493502034593675
aF0.3079110553811688
aI0
a.