(lp0
F9.329789879137237e-07
aF0.38393858012726767
aF0.16286967543060477
aF0.1995819321155159
aF0.22981138430290837
aF0.18559144570225572
aF0.19117719090289498
aF0.14452777501771497
aF0.24714380145087556
aF0.20168300079629775
aF0.1396301018206616
aF0.26227438818736637
aF0.1651060260646342
aF0.09005159840292665
aF0.20265143298575206
aF0.31770873422274226
aF0.16861589301716506
aF0.15537412224170621
aF0.10396931245512953
aF0.18099559120779274
aF0.0992978866626455
aF0.17003682001575804
aF0.22041908483158057
aF0.19359267350260367
aF0.15826309167778074
aF0.12706240836397065
aF0.11203351633716174
aF0.14454643459747274
aF0.18833533690570992
aF0.18573325850841904
aF0.19317843083196973
aF0.14431692176644617
aF0.20724588801173294
aF0.16512468564439242
aF0.14989007175074942
aF0.10453749665876888
aF0.140220677520011
aF0.16643598761190503
aF0.1157467727090582
aF0.2277350395653066
aF0.13739608363410305
aF0.08874216239338928
aF0.09867792212517656
aF0.14239171962488673
aF0.10762659008775177
aF0.2450501966019969
aF0.13507249946470345
aF0.25162863144577674
aF0.13754955867761431
aF0.17242851165127426
aF0.14284841283947003
aF0.1701972924016797
aF0.13043046251033807
aF0.22193704164491734
aF0.09418469531938456
aF0.16418330984558693
aF0.12090707949120905
aF0.15162494617877442
aF0.08856582936467383
aF0.1770472241309431
aF0.580330190593612
aF0.2392937162465696
aF0.34503755473671127
aF0.26205140620925427
aF0.1594129882803852
aF0.2494645866833114
aF0.2599172167744008
aF0.2727545411586014
aF0.9135641616647341
aF0.33420566868703183
aF0.14763879345291286
aF0.2706208182132439
aF0.17835899258794718
aF0.12467211619693508
aF0.13554925172752874
aF0.11983881855004697
aF0.11299728363167638
aF0.18055475863600456
aF0.12839843427466135
aF0.09872083915862184
aF0.11719942099323966
aF0.20912210875642678
aF0.10761259540293366
aF0.10330129949978328
aF0.15382304467429897
aF0.11396664880011897
aF0.1736213252873231
aF0.4034648973653141
aF0.17573778812140617
aF0.16035016567374072
aF0.15182973506662378
aF0.10472362596685869
aF0.18731185895596525
aF0.14678651714745428
aF0.12372327656622772
aF0.10893555960779366
aF0.13076540196700037
aF0.21538519670229306
aF0.17466486228530442
aF0.2372920098279998
aF0.23594058976400945
aF0.17444701169162613
aF0.14533200290529535
aF0.14820277925110759
aF0.25329166649173374
aF0.11604066109024913
aF0.14975712224497073
aF0.18196588935522584
aF0.15799112830280393
aF0.19071070140893553
aF0.7693512670554412
aF0.24188646485398024
aF1.0690665685172789
aF0.34096556794396093
aF0.20394080994704922
aF0.2142618900008415
aF0.31025749753576903
aF0.2855932650112827
aF0.17563982532767497
aF0.21327339876314966
aF0.11453250055629027
aF0.5100082988480956
aF0.15176629249544504
aF0.13079712325258797
aF0.1155069971091649
aF0.18909478180187023
aF0.28232410663763474
aF0.281594517069081
aF0.24277326138199484
aF1.1510133784521983
aF0.5826915604120195
aF0.2655561417773562
aF0.20071410211734886
aF0.41072394038077675
aF0.1588224125810349
aF0.13732237829405491
aF0.8658394874959825
aF0.2361523759942621
aF0.24245464905762049
aF0.20711946935887227
aF0.216897555641701
aF0.4048718296790845
aF0.14547848060639978
aF0.6700678415671106
aI1
a.