(lp0
F9.329789879137237e-07
aF0.6157661320230576
aF0.19650450092388239
aF0.16151405696116616
aF0.23639634999960346
aF0.2044754069071233
aF0.12503970991817326
aF0.11939425406230697
aF0.15330384186752544
aF0.17224984617508943
aF0.1287324407523356
aF0.2057428588622039
aF0.1944673413037732
aF0.09544514993205544
aF0.16373734588936495
aF0.11427546484511852
aF0.10458461209765835
aF0.1217976079351728
aF0.08713324012873258
aF0.16045652527836607
aF0.07918939053614071
aF0.15398305057072692
aF0.18080479700476415
aF0.16504025104598607
aF0.19906132984026037
aF0.13018415605752853
aF0.1597698527432616
aF0.18632010229181617
aF0.16397945393672853
aF0.20661612719489142
aF0.19662019031838351
aF0.317005734555349
aF0.20736390985370434
aF0.1826646906171705
aF0.11709772628355797
aF0.09184571699668442
aF0.12494594552988758
aF0.16519465906848563
aF0.15952354629045207
aF0.21541971692484552
aF0.11520237946961043
aF0.1349759361394547
aF0.14003361523293467
aF0.15945403935585212
aF0.1732765895512891
aF0.14967828552049234
aF0.1352828862264781
aF0.22751345705567694
aF0.12308325298051681
aF0.15964949845382215
aF0.11352581622832858
aF0.14118351183553912
aF0.1418897769293892
aF0.20210517378832726
aF0.07774840448930931
aF0.20885714272385947
aF0.21518320675140856
aF0.13344911602573362
aF0.0960940368181511
aF0.19722569368153842
aF0.17076361064734336
aF0.1977705534104821
aF0.17611237918505118
aF0.27889121045160437
aF0.19212416457562753
aF0.1989745627943833
aF0.13897701652912353
aF0.13601993962692838
aF0.1348672440873635
aF0.13056621095307896
aF0.14453710480759518
aF0.552088450139971
aF0.14855637828752677
aF0.1616875910529174
aF0.3238076178667342
aF0.08936166044136407
aF0.1177517445540861
aF0.15045265808046082
aF0.13378452197188828
aF0.68332780543283
aF0.33582718616802687
aF0.10096372064556469
aF0.08559195884069837
aF0.15030291495290093
aF0.19795761569755932
aF0.1402635945534545
aF0.2074674705213635
aF0.3108028237542051
aF0.27077289378827096
aF0.15072228900796958
aF0.2557677927256563
aF0.10902885750658342
aF0.18642599540694604
aF0.12578329417154066
aF0.10558429908320832
aF0.12395745429219218
aF0.09876702161852435
aF0.18211609897227632
aF0.19721123250722528
aF0.15947083297763598
aF0.24224379580635258
aF0.15841096884736672
aF0.13468344722674175
aF0.1341395204767899
aF0.20261178137876712
aF0.10238138221770043
aF0.10232120507297893
aF0.15018396013194035
aF0.08734129444303917
aF0.13094266797470056
aF0.14797186695160036
aF0.14033543393552605
aF0.08407166957989176
aF0.1559040543068413
aF0.0828671937064982
aF0.12991312566153823
aF0.7329063088505627
aF0.11345071141980512
aF0.17785331797649917
aF0.15309018967929333
aF0.08933553702970087
aF0.1653252761267936
aF0.11840249739815434
aF0.16699017713072806
aF0.09119169872615629
aF0.1590080753996297
aF0.1299663054638529
aF0.14413872277975415
aF0.3609672379763502
aF0.17300136074985417
aF0.16653814881108175
aF0.22420044866959543
aF0.2830648919540337
aF0.19301376004060344
aF0.13464566157773206
aF0.1123441983401392
aF0.15001322497715464
aF0.14605506162092752
aF0.2362447409140671
aF0.17141996136534132
aF0.10684335422739721
aF0.16297323609826364
aF0.12128446949181892
aF0.3843318307706731
aI0
a.