(lp0
F1.0413111952051473
aF0.4414367764616314
aF0.45204120856564933
aF0.2059658560797748
aF0.5659422886017751
aF0.32508098404950125
aF0.6081570903961127
aF0.5171214088985421
aF1.5950489636280851
aF1.2425546922232922
aF0.39005435634474583
aF0.5094601125566331
aF0.1912231203863346
aF0.2436253050896795
aF0.23171141315300403
aF0.5884223598080265
aF3.9904293274218716
aF0.5062510729453553
aF0.5714469647775378
aF0.5116199982086478
aF0.5972289086932818
aF0.416792154623554
aF0.39171322316517276
aF0.320162695835851
aF0.28064052038782705
aF0.42721092053113807
aF0.3701778103704356
aF1.1789938758145055
aF0.6206489733312424
aF0.4363514819707852
aF0.554096971868308
aF0.6645221754480239
aF0.34199760033438764
aF0.27709000425446106
aF0.6155076990826771
aF0.45143056270852355
aF0.3639015465341089
aF0.2692206498130254
aF0.6789378960567873
aF0.2423634280510818
aF1.0065575621188714
aF1.2879155564014724
aF0.5875318151623041
aF0.37084630197720614
aF0.4084409077677513
aF0.2461901109892004
aF0.6159867925091618
aF0.29595238361808285
aF0.16381263201892793
aF0.22828171999671554
aF0.27043121207371357
aF0.45530389544474303
aF0.36461855393089593
aF1.0767986296155243
aF0.24181715891533884
aF0.24397004709763337
aF0.17940719302567487
aF0.4102896392664377
aF0.49857764765594226
aF0.2356757129955156
aF0.29708364122199526
aF0.4222865678437344
aF0.3531427035983796
aF0.73821486150608
aF1.173151455100502
aF0.3257093568299041
aF0.30781915925867764
aF0.7447145778753068
aF0.24928952357494438
aF0.2541163781843139
aF0.6427656426102999
aF1.0973268732692958
aF0.7228680109272432
aF0.3987624741560154
aF0.40180917246990333
aF0.4010996290408002
aF0.3823538741724377
aF0.24501733506497203
aF0.4028569269352218
aF0.34454981078841485
aF0.378308870179211
aF0.504571213715785
aF0.7990531956977733
aF0.20823583525530154
aF0.2965443695559742
aF0.2712746404233499
aF0.3105402419818333
aF0.19365170887540728
aF0.20065057808429998
aF0.6265912246131791
aF0.28264879419601385
aF1.114639079842064
aF0.25196395649999914
aF0.12802197392089454
aF0.3626513319450382
aF0.37537226538883317
aF0.2533695149167414
aF0.2668778969524581
aF0.22410563007083795
aF0.18055057957708698
aF0.2579962418922648
aF0.20845462280839655
aF0.317143054404859
aF0.636335434440241
aF0.19368156474618559
aF0.6033349007665478
aF0.2170671085335556
aF0.2708095419363019
aF0.503887327675649
aF0.4397723116654362
aF0.35496437821417004
aF0.5982528717615665
aF0.39744088537585043
aF0.5684231248647151
aF0.365091582883629
aF0.5037385148197089
aF0.5746294140038941
aF0.26734905991327196
aF0.3029027370369519
aF0.1575802189928126
aF0.25216035214999977
aF0.4239860199885044
aF0.5358960866417348
aF0.5089189748986769
aF0.4665586257342653
aF1.082543085753528
aF0.18615601931674775
aF0.2790329683453123
aF0.29145907506512003
aF0.7494126790419244
aF0.7690200556812101
aF0.8734983429991701
aF0.24390380438433112
aF0.5061647708188701
aF0.23016403935004348
aF0.2999684647364802
aF0.2580246982691108
aF0.23559220985690388
aF0.2664379893563904
aF0.35675526396320834
aF0.45243539935960086
aF0.2759811385536324
aF0.12260453286758377
aF0.5546516379677087
aI1
a.