(lp0
F9.329959619934765e-07
aF0.5659931368817035
aF0.2303044552423178
aF0.18631416213230623
aF0.2122855042283378
aF0.4555600028363076
aF0.24495669032744427
aF0.39811777394627423
aF0.36929193070452415
aF1.7104316412518568
aF0.5433759152690385
aF0.3929820976734817
aF0.2129530628391434
aF1.034621614157654
aF0.21229903266978667
aF0.3804328354866877
aF0.30697806339894207
aF0.42339636654052537
aF0.44818886823857795
aF0.7984672742336372
aF0.31180025302850467
aF0.27208867940019665
aF0.23371735447129005
aF0.18766234129738635
aF0.1982518454660127
aF0.8575483105309125
aF0.30258925039372464
aF0.26041736641363755
aF0.7279010576442229
aF0.34302576188450296
aF0.7072370630779901
aF0.5777796748695678
aF0.20169646655769213
aF0.1661124670652434
aF0.39005762183061243
aF0.3402403024399714
aF0.2412331034431272
aF0.19561146689357223
aF0.5012768049739869
aF0.22481890548377947
aF0.6721909357576301
aF0.3198160878359708
aF0.21798004508236346
aF0.2704974547870158
aF0.2758108667905681
aF0.2618915000335882
aF0.601169883636743
aF0.2622283115758677
aF0.14340987632205682
aF0.16519113355277426
aF0.23239856467901276
aF0.5430932174925545
aF0.35794203482687337
aF0.3176631996536692
aF0.24701161393373638
aF0.22520609880800535
aF0.19256756756756843
aF0.39994224754995145
aF0.74853566283765
aF0.26274145935496307
aF0.30186337953529474
aF0.6870600924039216
aF0.3462903147555174
aF1.213197974279165
aF0.6010994424416154
aF0.2871299738014734
aF0.21550993827298726
aF0.46934455167678024
aF0.2567600222426236
aF0.1951533658762301
aF0.2656230173835823
aF0.7346494174373213
aF0.456312930577635
aF0.4797885084753375
aF0.42522223963814554
aF0.444895392492743
aF0.32429820043738644
aF0.24031037043671688
aF0.41824063085455165
aF0.3319109809892744
aF0.31807744986079456
aF0.32884422326220175
aF0.5465047172275845
aF0.2612561297834688
aF0.3527340513670296
aF0.31644424042932684
aF0.5771708950043646
aF0.18025155437127438
aF0.19278308963478707
aF0.609042037066061
aF0.3383472536330885
aF0.316569728386213
aF0.2606118960717154
aF0.16731043388044498
aF0.8176226143293235
aF0.4094014271106232
aF0.40789650462392757
aF0.19068478171626424
aF0.20081291938168278
aF0.1767285616187877
aF0.27450700493368174
aF0.19958323070378015
aF0.26225396896482067
aF0.23433872978198167
aF0.15626702717630536
aF0.490263720638616
aF0.19328644095628533
aF0.2112941960187129
aF0.44586944027706465
aF0.4157723900370982
aF0.3919884569739551
aF0.4272766967464605
aF0.4773739149256926
aF0.6932850414623388
aF0.35916799152093404
aF0.7919003821551485
aF0.47041563104114914
aF0.31685335915866375
aF0.3712274308276733
aF0.17927097561521776
aF0.28945313374683934
aF0.44762580517551953
aF0.5290450972928156
aF1.0850029296073203
aF0.4093496458347303
aF1.2036221702232481
aF0.24032063339230092
aF0.2817657135179914
aF0.289058009956932
aF0.518596009016477
aF0.40346803929032404
aF0.28596186285705727
aF0.5039036551049776
aF0.5791642408771693
aF0.21054686625316066
aF0.2785641378744117
aF0.25204559364667034
aF0.23881524440762547
aF0.30836916037826967
aF0.28400443732879666
aF0.6393541428752698
aF0.3199611687080619
aF0.14233879695768792
aF0.6991377251319264
aI1
a.